ARM GAS  C:\Users\elon1\AppData\Local\Temp\cctWl3k5.s 			page 1


   1              		.syntax unified
   2              		.cpu cortex-m3
   3              		.fpu softvfp
   4              		.eabi_attribute 20, 1
   5              		.eabi_attribute 21, 1
   6              		.eabi_attribute 23, 3
   7              		.eabi_attribute 24, 1
   8              		.eabi_attribute 25, 1
   9              		.eabi_attribute 26, 1
  10              		.eabi_attribute 30, 4
  11              		.eabi_attribute 34, 1
  12              		.eabi_attribute 18, 4
  13              		.thumb
  14              		.syntax unified
  15              		.file	"main.c"
  16              		.text
  17              	.Ltext0:
  18              		.cfi_sections	.debug_frame
  19              		.section	.text.startup.main,"ax",%progbits
  20              		.align	1
  21              		.global	main
  22              		.thumb
  23              		.thumb_func
  24              		.type	main, %function
  25              	main:
  26              	.LFB64:
  27              		.file 1 "main.c"
   1:main.c        **** /* ========================================
   2:main.c        ****  *
   3:main.c        ****  * Copyright YOUR COMPANY, THE YEAR
   4:main.c        ****  * All Rights Reserved
   5:main.c        ****  * UNPUBLISHED, LICENSED SOFTWARE.
   6:main.c        ****  *
   7:main.c        ****  * CONFIDENTIAL AND PROPRIETARY INFORMATION
   8:main.c        ****  * WHICH IS THE PROPERTY OF your company.
   9:main.c        ****  *
  10:main.c        ****  * ========================================
  11:main.c        **** */
  12:main.c        **** #include "project.h"
  13:main.c        **** #include <stdio.h>
  14:main.c        **** #include <stdlib.h>
  15:main.c        **** 
  16:main.c        **** int main(void)
  17:main.c        **** {
  28              		.loc 1 17 0
  29              		.cfi_startproc
  30              		@ args = 0, pretend = 0, frame = 0
  31              		@ frame_needed = 0, uses_anonymous_args = 0
  32              	.LVL0:
  33 0000 38B5     		push	{r3, r4, r5, lr}
  34              		.cfi_def_cfa_offset 16
  35              		.cfi_offset 3, -16
  36              		.cfi_offset 4, -12
  37              		.cfi_offset 5, -8
  38              		.cfi_offset 14, -4
  18:main.c        ****     //total steps are 1445;
  19:main.c        ****     int total_steps = 1450;
ARM GAS  C:\Users\elon1\AppData\Local\Temp\cctWl3k5.s 			page 2


  20:main.c        ****     //int middle_steps = 725;
  21:main.c        ****     
  22:main.c        ****     int current_delay;
  23:main.c        ****     int min_speed_delay = 700;
  24:main.c        ****     int max_speed_delay = 250;
  25:main.c        ****     
  26:main.c        ****     int big_delay = 750;
  27:main.c        ****     
  28:main.c        ****     
  29:main.c        ****     CyGlobalIntEnable; /* Enable global interrupts. */
  39              		.loc 1 29 0
  40              		.syntax unified
  41              	@ 29 "main.c" 1
  42 0002 62B6     		CPSIE   i
  43              	@ 0 "" 2
  44              		.thumb
  45              		.syntax unified
  46              	.LBB2:
  30:main.c        **** 
  31:main.c        ****     /* Place your initialization/startup code here (e.g. MyInst_Start()) */
  32:main.c        **** 
  33:main.c        ****     for(;;)
  34:main.c        ****     {
  35:main.c        ****         if (operation_input_Read() == 0)
  36:main.c        ****         {
  37:main.c        ****             if (sensor_left_Read() == 1)
  38:main.c        ****             {
  39:main.c        ****                 if (sensor_right_Read() == 0)
  40:main.c        ****                 {
  41:main.c        ****                     direction_out_Write(0);
  42:main.c        ****                     for (int i=0;i<total_steps;i++)
  43:main.c        ****                     {
  44:main.c        ****                         if (sensor_left_Read() == 0)
  45:main.c        ****                             break;
  46:main.c        ****                         pulse_out_Write(~ pulse_out_Read());
  47:main.c        ****                         current_delay = abs(725-i);
  48:main.c        ****                         if (current_delay > min_speed_delay)
  49:main.c        ****                             current_delay = min_speed_delay;
  50:main.c        ****                         if (current_delay < max_speed_delay)
  51:main.c        ****                             current_delay = max_speed_delay;
  52:main.c        ****                         
  53:main.c        ****                         CyDelayUs(current_delay);
  54:main.c        ****                     }
  55:main.c        ****                 }
  56:main.c        ****                 else
  57:main.c        ****                 {
  58:main.c        ****                     direction_out_Write(operation_input_Read());
  59:main.c        ****                     pulse_out_Write(~ pulse_out_Read());
  60:main.c        ****                     CyDelayUs(big_delay);
  61:main.c        ****                 }
  62:main.c        ****             }
  63:main.c        ****         }
  64:main.c        ****         else //going right 
  65:main.c        ****         {
  66:main.c        ****             if (sensor_right_Read() == 1)
  67:main.c        ****             {
  68:main.c        ****                 if (sensor_left_Read() == 0)
ARM GAS  C:\Users\elon1\AppData\Local\Temp\cctWl3k5.s 			page 3


  69:main.c        ****                 {
  70:main.c        ****                     direction_out_Write(1);
  71:main.c        ****                     for (int i=0;i<total_steps;i++)
  47              		.loc 1 71 0
  48 0004 6FF43575 		mvn	r5, #724
  49              	.L2:
  50              	.LBE2:
  35:main.c        ****         {
  51              		.loc 1 35 0
  52 0008 FFF7FEFF 		bl	operation_input_Read
  53              	.LVL1:
  54 000c 48BB     		cbnz	r0, .L3
  37:main.c        ****             {
  55              		.loc 1 37 0
  56 000e FFF7FEFF 		bl	sensor_left_Read
  57              	.LVL2:
  58 0012 0128     		cmp	r0, #1
  59 0014 F8D1     		bne	.L2
  39:main.c        ****                 {
  60              		.loc 1 39 0
  61 0016 FFF7FEFF 		bl	sensor_right_Read
  62              	.LVL3:
  63 001a 0028     		cmp	r0, #0
  64 001c 4CD1     		bne	.L10
  41:main.c        ****                     for (int i=0;i<total_steps;i++)
  65              		.loc 1 41 0
  66 001e FFF7FEFF 		bl	direction_out_Write
  67              	.LVL4:
  68 0022 40F2D524 		movw	r4, #725
  69              	.LVL5:
  70              	.L8:
  71              	.LBB3:
  44:main.c        ****                             break;
  72              		.loc 1 44 0
  73 0026 FFF7FEFF 		bl	sensor_left_Read
  74              	.LVL6:
  75 002a 0028     		cmp	r0, #0
  76 002c ECD0     		beq	.L2
  46:main.c        ****                         current_delay = abs(725-i);
  77              		.loc 1 46 0
  78 002e FFF7FEFF 		bl	pulse_out_Read
  79              	.LVL7:
  80 0032 C043     		mvns	r0, r0
  81 0034 C0B2     		uxtb	r0, r0
  82 0036 FFF7FEFF 		bl	pulse_out_Write
  83              	.LVL8:
  47:main.c        ****                         if (current_delay > min_speed_delay)
  84              		.loc 1 47 0
  85 003a 84EAE470 		eor	r0, r4, r4, asr #31
  86 003e A0EBE470 		sub	r0, r0, r4, asr #31
  87              	.LVL9:
  48:main.c        ****                             current_delay = min_speed_delay;
  88              		.loc 1 48 0
  89 0042 B0F52F7F 		cmp	r0, #700
  90 0046 03DC     		bgt	.L14
  51:main.c        ****                         
  91              		.loc 1 51 0
ARM GAS  C:\Users\elon1\AppData\Local\Temp\cctWl3k5.s 			page 4


  92 0048 FA28     		cmp	r0, #250
  93 004a B8BF     		it	lt
  94 004c FA20     		movlt	r0, #250
  95              	.LVL10:
  96 004e 01E0     		b	.L7
  97              	.LVL11:
  98              	.L14:
  49:main.c        ****                         if (current_delay < max_speed_delay)
  99              		.loc 1 49 0
 100 0050 4FF42F70 		mov	r0, #700
 101              	.LVL12:
 102              	.L7:
  53:main.c        ****                     }
 103              		.loc 1 53 0 discriminator 2
 104 0054 80B2     		uxth	r0, r0
 105              	.LVL13:
 106 0056 013C     		subs	r4, r4, #1
 107              	.LVL14:
 108 0058 FFF7FEFF 		bl	CyDelayUs
 109              	.LVL15:
  42:main.c        ****                     {
 110              		.loc 1 42 0 discriminator 2
 111 005c AC42     		cmp	r4, r5
 112 005e E2D1     		bne	.L8
 113 0060 D2E7     		b	.L2
 114              	.L3:
 115              	.LBE3:
  66:main.c        ****             {
 116              		.loc 1 66 0
 117 0062 FFF7FEFF 		bl	sensor_right_Read
 118              	.LVL16:
 119 0066 0128     		cmp	r0, #1
 120 0068 0446     		mov	r4, r0
 121 006a CDD1     		bne	.L2
  68:main.c        ****                 {
 122              		.loc 1 68 0
 123 006c FFF7FEFF 		bl	sensor_left_Read
 124              	.LVL17:
 125 0070 10BB     		cbnz	r0, .L10
  70:main.c        ****                     for (int i=0;i<total_steps;i++)
 126              		.loc 1 70 0
 127 0072 2046     		mov	r0, r4
 128 0074 FFF7FEFF 		bl	direction_out_Write
 129              	.LVL18:
 130 0078 40F2D524 		movw	r4, #725
 131              	.LVL19:
 132              	.L13:
 133              	.LBB4:
  72:main.c        ****                     {
  73:main.c        ****                         if (sensor_right_Read() == 0)
 134              		.loc 1 73 0
 135 007c FFF7FEFF 		bl	sensor_right_Read
 136              	.LVL20:
 137 0080 0028     		cmp	r0, #0
 138 0082 C1D0     		beq	.L2
  74:main.c        ****                             break;
  75:main.c        ****                         pulse_out_Write(~ pulse_out_Read());
ARM GAS  C:\Users\elon1\AppData\Local\Temp\cctWl3k5.s 			page 5


 139              		.loc 1 75 0
 140 0084 FFF7FEFF 		bl	pulse_out_Read
 141              	.LVL21:
 142 0088 C043     		mvns	r0, r0
 143 008a C0B2     		uxtb	r0, r0
 144 008c FFF7FEFF 		bl	pulse_out_Write
 145              	.LVL22:
  76:main.c        ****                         current_delay = abs(725-i);
 146              		.loc 1 76 0
 147 0090 84EAE470 		eor	r0, r4, r4, asr #31
 148 0094 A0EBE470 		sub	r0, r0, r4, asr #31
 149              	.LVL23:
  77:main.c        ****                         if (current_delay > min_speed_delay)
 150              		.loc 1 77 0
 151 0098 B0F52F7F 		cmp	r0, #700
 152 009c 03DC     		bgt	.L16
  78:main.c        ****                             current_delay = min_speed_delay;
  79:main.c        ****                         if (current_delay < max_speed_delay)
  80:main.c        ****                             current_delay = max_speed_delay;
 153              		.loc 1 80 0
 154 009e FA28     		cmp	r0, #250
 155 00a0 B8BF     		it	lt
 156 00a2 FA20     		movlt	r0, #250
 157              	.LVL24:
 158 00a4 01E0     		b	.L12
 159              	.LVL25:
 160              	.L16:
  78:main.c        ****                             current_delay = min_speed_delay;
 161              		.loc 1 78 0
 162 00a6 4FF42F70 		mov	r0, #700
 163              	.LVL26:
 164              	.L12:
  81:main.c        ****                         
  82:main.c        ****                         CyDelayUs(current_delay);
 165              		.loc 1 82 0 discriminator 2
 166 00aa 80B2     		uxth	r0, r0
 167              	.LVL27:
 168 00ac 013C     		subs	r4, r4, #1
 169              	.LVL28:
 170 00ae FFF7FEFF 		bl	CyDelayUs
 171              	.LVL29:
  71:main.c        ****                     {
 172              		.loc 1 71 0 discriminator 2
 173 00b2 AC42     		cmp	r4, r5
 174 00b4 E2D1     		bne	.L13
 175 00b6 A7E7     		b	.L2
 176              	.L10:
 177              	.LBE4:
  83:main.c        ****                     }
  84:main.c        ****                 }
  85:main.c        ****                 else
  86:main.c        ****                 {
  87:main.c        ****                     direction_out_Write(operation_input_Read());
 178              		.loc 1 87 0
 179 00b8 FFF7FEFF 		bl	operation_input_Read
 180              	.LVL30:
 181 00bc FFF7FEFF 		bl	direction_out_Write
ARM GAS  C:\Users\elon1\AppData\Local\Temp\cctWl3k5.s 			page 6


 182              	.LVL31:
  88:main.c        ****                     pulse_out_Write(~ pulse_out_Read());
 183              		.loc 1 88 0
 184 00c0 FFF7FEFF 		bl	pulse_out_Read
 185              	.LVL32:
 186 00c4 C043     		mvns	r0, r0
 187 00c6 C0B2     		uxtb	r0, r0
 188 00c8 FFF7FEFF 		bl	pulse_out_Write
 189              	.LVL33:
  89:main.c        ****                     CyDelayUs(big_delay);
 190              		.loc 1 89 0
 191 00cc 40F2EE20 		movw	r0, #750
 192 00d0 FFF7FEFF 		bl	CyDelayUs
 193              	.LVL34:
 194 00d4 98E7     		b	.L2
 195              		.cfi_endproc
 196              	.LFE64:
 197              		.size	main, .-main
 198              		.text
 199              	.Letext0:
 200              		.file 2 "c:\\program files (x86)\\cypress\\psoc creator\\4.4\\psoc creator\\import\\gnu\\arm\\5.4.
 201              		.file 3 "c:\\program files (x86)\\cypress\\psoc creator\\4.4\\psoc creator\\import\\gnu\\arm\\5.4.
 202              		.file 4 "Generated_Source\\PSoC5/sensor_right.h"
 203              		.file 5 "Generated_Source\\PSoC5/pulse_out.h"
 204              		.file 6 "Generated_Source\\PSoC5/CyLib.h"
 205              		.file 7 "Generated_Source\\PSoC5/sensor_left.h"
 206              		.file 8 "Generated_Source\\PSoC5/operation_input.h"
 207              		.file 9 "Generated_Source\\PSoC5/direction_out.h"
 208              		.file 10 "Generated_Source\\PSoC5/core_cm3.h"