ARM GAS  C:\Users\elon1\AppData\Local\Temp\ccNBgCce.s 			page 1


   1              		.syntax unified
   2              		.cpu cortex-m3
   3              		.fpu softvfp
   4              		.eabi_attribute 20, 1
   5              		.eabi_attribute 21, 1
   6              		.eabi_attribute 23, 3
   7              		.eabi_attribute 24, 1
   8              		.eabi_attribute 25, 1
   9              		.eabi_attribute 26, 1
  10              		.eabi_attribute 30, 4
  11              		.eabi_attribute 34, 1
  12              		.eabi_attribute 18, 4
  13              		.thumb
  14              		.syntax unified
  15              		.file	"cyfitter_cfg.c"
  16              		.text
  17              	.Ltext0:
  18              		.cfi_sections	.debug_frame
  19              		.section	.text.SetAnalogRoutingPumps,"ax",%progbits
  20              		.align	1
  21              		.global	SetAnalogRoutingPumps
  22              		.thumb
  23              		.thumb_func
  24              		.type	SetAnalogRoutingPumps, %function
  25              	SetAnalogRoutingPumps:
  26              	.LFB7:
  27              		.file 1 "Generated_Source\\PSoC5\\cyfitter_cfg.c"
   1:Generated_Source\PSoC5/cyfitter_cfg.c **** 
   2:Generated_Source\PSoC5/cyfitter_cfg.c **** /*******************************************************************************
   3:Generated_Source\PSoC5/cyfitter_cfg.c **** * File Name: cyfitter_cfg.c
   4:Generated_Source\PSoC5/cyfitter_cfg.c **** * 
   5:Generated_Source\PSoC5/cyfitter_cfg.c **** * PSoC Creator  4.4
   6:Generated_Source\PSoC5/cyfitter_cfg.c **** *
   7:Generated_Source\PSoC5/cyfitter_cfg.c **** * Description:
   8:Generated_Source\PSoC5/cyfitter_cfg.c **** * This file contains device initialization code.
   9:Generated_Source\PSoC5/cyfitter_cfg.c **** * Except for the user defined sections in CyClockStartupError(), this file should not be modified.
  10:Generated_Source\PSoC5/cyfitter_cfg.c **** * This file is automatically generated by PSoC Creator.
  11:Generated_Source\PSoC5/cyfitter_cfg.c **** *
  12:Generated_Source\PSoC5/cyfitter_cfg.c **** ********************************************************************************
  13:Generated_Source\PSoC5/cyfitter_cfg.c **** * Copyright (c) 2007-2020 Cypress Semiconductor.  All rights reserved.
  14:Generated_Source\PSoC5/cyfitter_cfg.c **** * You may use this file only in accordance with the license, terms, conditions, 
  15:Generated_Source\PSoC5/cyfitter_cfg.c **** * disclaimers, and limitations in the end user license agreement accompanying 
  16:Generated_Source\PSoC5/cyfitter_cfg.c **** * the software package with which this file was provided.
  17:Generated_Source\PSoC5/cyfitter_cfg.c **** ********************************************************************************/
  18:Generated_Source\PSoC5/cyfitter_cfg.c **** 
  19:Generated_Source\PSoC5/cyfitter_cfg.c **** #include <string.h>
  20:Generated_Source\PSoC5/cyfitter_cfg.c **** #include "cytypes.h"
  21:Generated_Source\PSoC5/cyfitter_cfg.c **** #include "cydevice_trm.h"
  22:Generated_Source\PSoC5/cyfitter_cfg.c **** #include "cyfitter.h"
  23:Generated_Source\PSoC5/cyfitter_cfg.c **** #include "CyLib.h"
  24:Generated_Source\PSoC5/cyfitter_cfg.c **** #include "cyfitter_cfg.h"
  25:Generated_Source\PSoC5/cyfitter_cfg.c **** #include "cyapicallbacks.h"
  26:Generated_Source\PSoC5/cyfitter_cfg.c **** 
  27:Generated_Source\PSoC5/cyfitter_cfg.c **** #define CY_NEED_CYCLOCKSTARTUPERROR 1
  28:Generated_Source\PSoC5/cyfitter_cfg.c **** 
  29:Generated_Source\PSoC5/cyfitter_cfg.c **** 
  30:Generated_Source\PSoC5/cyfitter_cfg.c **** #if defined(__GNUC__) || defined(__ARMCC_VERSION)
ARM GAS  C:\Users\elon1\AppData\Local\Temp\ccNBgCce.s 			page 2


  31:Generated_Source\PSoC5/cyfitter_cfg.c ****     #define CYPACKED 
  32:Generated_Source\PSoC5/cyfitter_cfg.c ****     #define CYPACKED_ATTR __attribute__ ((packed))
  33:Generated_Source\PSoC5/cyfitter_cfg.c ****     #define CYALIGNED __attribute__ ((aligned))
  34:Generated_Source\PSoC5/cyfitter_cfg.c ****     #define CY_CFG_UNUSED __attribute__ ((unused))
  35:Generated_Source\PSoC5/cyfitter_cfg.c ****     #ifndef CY_CFG_SECTION
  36:Generated_Source\PSoC5/cyfitter_cfg.c ****         #define CY_CFG_SECTION __attribute__ ((section(".psocinit")))
  37:Generated_Source\PSoC5/cyfitter_cfg.c ****     #endif
  38:Generated_Source\PSoC5/cyfitter_cfg.c ****     
  39:Generated_Source\PSoC5/cyfitter_cfg.c ****     #if defined(__ARMCC_VERSION)
  40:Generated_Source\PSoC5/cyfitter_cfg.c ****         #define CY_CFG_MEMORY_BARRIER() __memory_changed()
  41:Generated_Source\PSoC5/cyfitter_cfg.c ****     #else
  42:Generated_Source\PSoC5/cyfitter_cfg.c ****         #define CY_CFG_MEMORY_BARRIER() __sync_synchronize()
  43:Generated_Source\PSoC5/cyfitter_cfg.c ****     #endif
  44:Generated_Source\PSoC5/cyfitter_cfg.c ****     
  45:Generated_Source\PSoC5/cyfitter_cfg.c **** #elif defined(__ICCARM__)
  46:Generated_Source\PSoC5/cyfitter_cfg.c ****     #include <intrinsics.h>
  47:Generated_Source\PSoC5/cyfitter_cfg.c **** 
  48:Generated_Source\PSoC5/cyfitter_cfg.c ****     #define CYPACKED __packed
  49:Generated_Source\PSoC5/cyfitter_cfg.c ****     #define CYPACKED_ATTR 
  50:Generated_Source\PSoC5/cyfitter_cfg.c ****     #define CYALIGNED _Pragma("data_alignment=4")
  51:Generated_Source\PSoC5/cyfitter_cfg.c ****     #define CY_CFG_UNUSED _Pragma("diag_suppress=Pe177")
  52:Generated_Source\PSoC5/cyfitter_cfg.c ****     #define CY_CFG_SECTION _Pragma("location=\".psocinit\"")
  53:Generated_Source\PSoC5/cyfitter_cfg.c ****     
  54:Generated_Source\PSoC5/cyfitter_cfg.c ****     #define CY_CFG_MEMORY_BARRIER() __DMB()
  55:Generated_Source\PSoC5/cyfitter_cfg.c ****     
  56:Generated_Source\PSoC5/cyfitter_cfg.c **** #else
  57:Generated_Source\PSoC5/cyfitter_cfg.c ****     #error Unsupported toolchain
  58:Generated_Source\PSoC5/cyfitter_cfg.c **** #endif
  59:Generated_Source\PSoC5/cyfitter_cfg.c **** 
  60:Generated_Source\PSoC5/cyfitter_cfg.c **** #ifndef CYCODE
  61:Generated_Source\PSoC5/cyfitter_cfg.c ****     #define CYCODE
  62:Generated_Source\PSoC5/cyfitter_cfg.c **** #endif
  63:Generated_Source\PSoC5/cyfitter_cfg.c **** #ifndef CYDATA
  64:Generated_Source\PSoC5/cyfitter_cfg.c ****     #define CYDATA
  65:Generated_Source\PSoC5/cyfitter_cfg.c **** #endif
  66:Generated_Source\PSoC5/cyfitter_cfg.c **** #ifndef CYFAR
  67:Generated_Source\PSoC5/cyfitter_cfg.c ****     #define CYFAR
  68:Generated_Source\PSoC5/cyfitter_cfg.c **** #endif
  69:Generated_Source\PSoC5/cyfitter_cfg.c **** #ifndef CYXDATA
  70:Generated_Source\PSoC5/cyfitter_cfg.c ****     #define CYXDATA
  71:Generated_Source\PSoC5/cyfitter_cfg.c **** #endif
  72:Generated_Source\PSoC5/cyfitter_cfg.c **** 
  73:Generated_Source\PSoC5/cyfitter_cfg.c **** 
  74:Generated_Source\PSoC5/cyfitter_cfg.c **** CY_CFG_UNUSED
  75:Generated_Source\PSoC5/cyfitter_cfg.c **** static void CYMEMZERO(void *s, size_t n);
  76:Generated_Source\PSoC5/cyfitter_cfg.c **** CY_CFG_UNUSED
  77:Generated_Source\PSoC5/cyfitter_cfg.c **** static void CYMEMZERO(void *s, size_t n)
  78:Generated_Source\PSoC5/cyfitter_cfg.c **** {
  79:Generated_Source\PSoC5/cyfitter_cfg.c **** 	(void)memset(s, 0, n);
  80:Generated_Source\PSoC5/cyfitter_cfg.c **** }
  81:Generated_Source\PSoC5/cyfitter_cfg.c **** CY_CFG_UNUSED
  82:Generated_Source\PSoC5/cyfitter_cfg.c **** static void CYCONFIGCPY(void *dest, const void *src, size_t n);
  83:Generated_Source\PSoC5/cyfitter_cfg.c **** CY_CFG_UNUSED
  84:Generated_Source\PSoC5/cyfitter_cfg.c **** static void CYCONFIGCPY(void *dest, const void *src, size_t n)
  85:Generated_Source\PSoC5/cyfitter_cfg.c **** {
  86:Generated_Source\PSoC5/cyfitter_cfg.c **** 	(void)memcpy(dest, src, n);
  87:Generated_Source\PSoC5/cyfitter_cfg.c **** }
ARM GAS  C:\Users\elon1\AppData\Local\Temp\ccNBgCce.s 			page 3


  88:Generated_Source\PSoC5/cyfitter_cfg.c **** CY_CFG_UNUSED
  89:Generated_Source\PSoC5/cyfitter_cfg.c **** static void CYCONFIGCPYCODE(void *dest, const void *src, size_t n);
  90:Generated_Source\PSoC5/cyfitter_cfg.c **** CY_CFG_UNUSED
  91:Generated_Source\PSoC5/cyfitter_cfg.c **** static void CYCONFIGCPYCODE(void *dest, const void *src, size_t n)
  92:Generated_Source\PSoC5/cyfitter_cfg.c **** {
  93:Generated_Source\PSoC5/cyfitter_cfg.c **** 	(void)memcpy(dest, src, n);
  94:Generated_Source\PSoC5/cyfitter_cfg.c **** }
  95:Generated_Source\PSoC5/cyfitter_cfg.c **** 
  96:Generated_Source\PSoC5/cyfitter_cfg.c **** 
  97:Generated_Source\PSoC5/cyfitter_cfg.c **** 
  98:Generated_Source\PSoC5/cyfitter_cfg.c **** 
  99:Generated_Source\PSoC5/cyfitter_cfg.c **** /* Clock startup error codes                                                   */
 100:Generated_Source\PSoC5/cyfitter_cfg.c **** #define CYCLOCKSTART_NO_ERROR    0u
 101:Generated_Source\PSoC5/cyfitter_cfg.c **** #define CYCLOCKSTART_XTAL_ERROR  1u
 102:Generated_Source\PSoC5/cyfitter_cfg.c **** #define CYCLOCKSTART_32KHZ_ERROR 2u
 103:Generated_Source\PSoC5/cyfitter_cfg.c **** #define CYCLOCKSTART_PLL_ERROR   3u
 104:Generated_Source\PSoC5/cyfitter_cfg.c **** #define CYCLOCKSTART_FLL_ERROR   4u
 105:Generated_Source\PSoC5/cyfitter_cfg.c **** #define CYCLOCKSTART_WCO_ERROR   5u
 106:Generated_Source\PSoC5/cyfitter_cfg.c **** 
 107:Generated_Source\PSoC5/cyfitter_cfg.c **** 
 108:Generated_Source\PSoC5/cyfitter_cfg.c **** #ifdef CY_NEED_CYCLOCKSTARTUPERROR
 109:Generated_Source\PSoC5/cyfitter_cfg.c **** /*******************************************************************************
 110:Generated_Source\PSoC5/cyfitter_cfg.c **** * Function Name: CyClockStartupError
 111:Generated_Source\PSoC5/cyfitter_cfg.c **** ********************************************************************************
 112:Generated_Source\PSoC5/cyfitter_cfg.c **** * Summary:
 113:Generated_Source\PSoC5/cyfitter_cfg.c **** *  If an error is encountered during clock configuration (crystal startup error,
 114:Generated_Source\PSoC5/cyfitter_cfg.c **** *  PLL lock error, etc.), the system will end up here.  Unless reimplemented by
 115:Generated_Source\PSoC5/cyfitter_cfg.c **** *  the customer, this function will stop in an infinite loop.
 116:Generated_Source\PSoC5/cyfitter_cfg.c **** *
 117:Generated_Source\PSoC5/cyfitter_cfg.c **** * Parameters:
 118:Generated_Source\PSoC5/cyfitter_cfg.c **** *   void
 119:Generated_Source\PSoC5/cyfitter_cfg.c **** *
 120:Generated_Source\PSoC5/cyfitter_cfg.c **** * Return:
 121:Generated_Source\PSoC5/cyfitter_cfg.c **** *   void
 122:Generated_Source\PSoC5/cyfitter_cfg.c **** *
 123:Generated_Source\PSoC5/cyfitter_cfg.c **** *******************************************************************************/
 124:Generated_Source\PSoC5/cyfitter_cfg.c **** CY_CFG_UNUSED
 125:Generated_Source\PSoC5/cyfitter_cfg.c **** static void CyClockStartupError(uint8 errorCode);
 126:Generated_Source\PSoC5/cyfitter_cfg.c **** CY_CFG_UNUSED
 127:Generated_Source\PSoC5/cyfitter_cfg.c **** static void CyClockStartupError(uint8 errorCode)
 128:Generated_Source\PSoC5/cyfitter_cfg.c **** {
 129:Generated_Source\PSoC5/cyfitter_cfg.c ****     /* To remove the compiler warning if errorCode not used.                */
 130:Generated_Source\PSoC5/cyfitter_cfg.c ****     errorCode = errorCode;
 131:Generated_Source\PSoC5/cyfitter_cfg.c **** 
 132:Generated_Source\PSoC5/cyfitter_cfg.c ****     /* If we have a clock startup error (bad MHz crystal, PLL lock, etc.),  */
 133:Generated_Source\PSoC5/cyfitter_cfg.c ****     /* we will end up here to allow the customer to implement something to  */
 134:Generated_Source\PSoC5/cyfitter_cfg.c ****     /* deal with the clock condition.                                       */
 135:Generated_Source\PSoC5/cyfitter_cfg.c **** 
 136:Generated_Source\PSoC5/cyfitter_cfg.c **** #ifdef CY_CFG_CLOCK_STARTUP_ERROR_CALLBACK
 137:Generated_Source\PSoC5/cyfitter_cfg.c ****     CY_CFG_Clock_Startup_ErrorCallback();
 138:Generated_Source\PSoC5/cyfitter_cfg.c **** #else
 139:Generated_Source\PSoC5/cyfitter_cfg.c ****     /*  If not using CY_CFG_CLOCK_STARTUP_ERROR_CALLBACK, place your clock startup code here. */
 140:Generated_Source\PSoC5/cyfitter_cfg.c ****     /* `#START CyClockStartupError` */
 141:Generated_Source\PSoC5/cyfitter_cfg.c **** 
 142:Generated_Source\PSoC5/cyfitter_cfg.c **** 
 143:Generated_Source\PSoC5/cyfitter_cfg.c **** 
 144:Generated_Source\PSoC5/cyfitter_cfg.c ****     /* `#END` */
ARM GAS  C:\Users\elon1\AppData\Local\Temp\ccNBgCce.s 			page 4


 145:Generated_Source\PSoC5/cyfitter_cfg.c **** 
 146:Generated_Source\PSoC5/cyfitter_cfg.c ****     while(1) {}
 147:Generated_Source\PSoC5/cyfitter_cfg.c **** #endif /* CY_CFG_CLOCK_STARTUP_ERROR_CALLBACK */
 148:Generated_Source\PSoC5/cyfitter_cfg.c **** }
 149:Generated_Source\PSoC5/cyfitter_cfg.c **** #endif
 150:Generated_Source\PSoC5/cyfitter_cfg.c **** 
 151:Generated_Source\PSoC5/cyfitter_cfg.c **** #define CY_CFG_BASE_ADDR_COUNT 1u
 152:Generated_Source\PSoC5/cyfitter_cfg.c **** CYPACKED typedef struct
 153:Generated_Source\PSoC5/cyfitter_cfg.c **** {
 154:Generated_Source\PSoC5/cyfitter_cfg.c **** 	uint8 offset;
 155:Generated_Source\PSoC5/cyfitter_cfg.c **** 	uint8 value;
 156:Generated_Source\PSoC5/cyfitter_cfg.c **** } CYPACKED_ATTR cy_cfg_addrvalue_t;
 157:Generated_Source\PSoC5/cyfitter_cfg.c **** 
 158:Generated_Source\PSoC5/cyfitter_cfg.c **** #define cy_cfg_addr_table ((const uint32 CYFAR *)0x48000000u)
 159:Generated_Source\PSoC5/cyfitter_cfg.c **** #define cy_cfg_data_table ((const cy_cfg_addrvalue_t CYFAR *)0x48000004u)
 160:Generated_Source\PSoC5/cyfitter_cfg.c **** 
 161:Generated_Source\PSoC5/cyfitter_cfg.c **** /* IOPINS0_1 Address: CYREG_PRT1_DM0 Size (bytes): 8 */
 162:Generated_Source\PSoC5/cyfitter_cfg.c **** #define BS_IOPINS0_1_VAL ((const uint8 CYFAR *)0x48000008u)
 163:Generated_Source\PSoC5/cyfitter_cfg.c **** 
 164:Generated_Source\PSoC5/cyfitter_cfg.c **** /* IOPINS0_2 Address: CYREG_PRT2_DR Size (bytes): 10 */
 165:Generated_Source\PSoC5/cyfitter_cfg.c **** #define BS_IOPINS0_2_VAL ((const uint8 CYFAR *)0x48000010u)
 166:Generated_Source\PSoC5/cyfitter_cfg.c **** 
 167:Generated_Source\PSoC5/cyfitter_cfg.c **** 
 168:Generated_Source\PSoC5/cyfitter_cfg.c **** /*******************************************************************************
 169:Generated_Source\PSoC5/cyfitter_cfg.c **** * Function Name: cfg_write_bytes32
 170:Generated_Source\PSoC5/cyfitter_cfg.c **** ********************************************************************************
 171:Generated_Source\PSoC5/cyfitter_cfg.c **** * Summary:
 172:Generated_Source\PSoC5/cyfitter_cfg.c **** *  This function is used for setting up the chip configuration areas that
 173:Generated_Source\PSoC5/cyfitter_cfg.c **** *  contain relatively sparse data.
 174:Generated_Source\PSoC5/cyfitter_cfg.c **** *
 175:Generated_Source\PSoC5/cyfitter_cfg.c **** * Parameters:
 176:Generated_Source\PSoC5/cyfitter_cfg.c **** *   void
 177:Generated_Source\PSoC5/cyfitter_cfg.c **** *
 178:Generated_Source\PSoC5/cyfitter_cfg.c **** * Return:
 179:Generated_Source\PSoC5/cyfitter_cfg.c **** *   void
 180:Generated_Source\PSoC5/cyfitter_cfg.c **** *
 181:Generated_Source\PSoC5/cyfitter_cfg.c **** *******************************************************************************/
 182:Generated_Source\PSoC5/cyfitter_cfg.c **** static void cfg_write_bytes32(const uint32 addr_table[], const cy_cfg_addrvalue_t data_table[]);
 183:Generated_Source\PSoC5/cyfitter_cfg.c **** static void cfg_write_bytes32(const uint32 addr_table[], const cy_cfg_addrvalue_t data_table[])
 184:Generated_Source\PSoC5/cyfitter_cfg.c **** {
 185:Generated_Source\PSoC5/cyfitter_cfg.c **** 	/* For 32-bit little-endian architectures */
 186:Generated_Source\PSoC5/cyfitter_cfg.c **** 	uint32 i, j = 0u;
 187:Generated_Source\PSoC5/cyfitter_cfg.c **** 	for (i = 0u; i < CY_CFG_BASE_ADDR_COUNT; i++)
 188:Generated_Source\PSoC5/cyfitter_cfg.c **** 	{
 189:Generated_Source\PSoC5/cyfitter_cfg.c **** 		uint32 baseAddr = addr_table[i];
 190:Generated_Source\PSoC5/cyfitter_cfg.c **** 		uint8 count = (uint8)baseAddr;
 191:Generated_Source\PSoC5/cyfitter_cfg.c **** 		baseAddr &= 0xFFFFFF00u;
 192:Generated_Source\PSoC5/cyfitter_cfg.c **** 		while (count != 0u)
 193:Generated_Source\PSoC5/cyfitter_cfg.c **** 		{
 194:Generated_Source\PSoC5/cyfitter_cfg.c **** 			CY_SET_REG8((void *)(baseAddr + data_table[j].offset), data_table[j].value);
 195:Generated_Source\PSoC5/cyfitter_cfg.c **** 			j++;
 196:Generated_Source\PSoC5/cyfitter_cfg.c **** 			count--;
 197:Generated_Source\PSoC5/cyfitter_cfg.c **** 		}
 198:Generated_Source\PSoC5/cyfitter_cfg.c **** 	}
 199:Generated_Source\PSoC5/cyfitter_cfg.c **** }
 200:Generated_Source\PSoC5/cyfitter_cfg.c **** 
 201:Generated_Source\PSoC5/cyfitter_cfg.c **** /*******************************************************************************
ARM GAS  C:\Users\elon1\AppData\Local\Temp\ccNBgCce.s 			page 5


 202:Generated_Source\PSoC5/cyfitter_cfg.c **** * Function Name: ClockSetup
 203:Generated_Source\PSoC5/cyfitter_cfg.c **** ********************************************************************************
 204:Generated_Source\PSoC5/cyfitter_cfg.c **** *
 205:Generated_Source\PSoC5/cyfitter_cfg.c **** * Summary:
 206:Generated_Source\PSoC5/cyfitter_cfg.c **** *  Performs the initialization of all of the clocks in the device based on the
 207:Generated_Source\PSoC5/cyfitter_cfg.c **** *  settings in the Clock tab of the DWR.  This includes enabling the requested
 208:Generated_Source\PSoC5/cyfitter_cfg.c **** *  clocks and setting the necessary dividers to produce the desired frequency. 
 209:Generated_Source\PSoC5/cyfitter_cfg.c **** *
 210:Generated_Source\PSoC5/cyfitter_cfg.c **** * Parameters:
 211:Generated_Source\PSoC5/cyfitter_cfg.c **** *  void
 212:Generated_Source\PSoC5/cyfitter_cfg.c **** *
 213:Generated_Source\PSoC5/cyfitter_cfg.c **** * Return:
 214:Generated_Source\PSoC5/cyfitter_cfg.c **** *  void
 215:Generated_Source\PSoC5/cyfitter_cfg.c **** *
 216:Generated_Source\PSoC5/cyfitter_cfg.c **** *******************************************************************************/
 217:Generated_Source\PSoC5/cyfitter_cfg.c **** static void ClockSetup(void);
 218:Generated_Source\PSoC5/cyfitter_cfg.c **** static void ClockSetup(void)
 219:Generated_Source\PSoC5/cyfitter_cfg.c **** {
 220:Generated_Source\PSoC5/cyfitter_cfg.c **** 	uint32 timeout;
 221:Generated_Source\PSoC5/cyfitter_cfg.c **** 	uint8 pllLock;
 222:Generated_Source\PSoC5/cyfitter_cfg.c **** 
 223:Generated_Source\PSoC5/cyfitter_cfg.c **** 
 224:Generated_Source\PSoC5/cyfitter_cfg.c **** 	/* Configure ILO based on settings from Clock DWR */
 225:Generated_Source\PSoC5/cyfitter_cfg.c **** 	CY_SET_XTND_REG8((void CYFAR *)(CYREG_SLOWCLK_ILO_CR0), 0x02u);
 226:Generated_Source\PSoC5/cyfitter_cfg.c **** 	CY_SET_XTND_REG8((void CYFAR *)(CYREG_CLKDIST_CR), 0x08u);
 227:Generated_Source\PSoC5/cyfitter_cfg.c **** 
 228:Generated_Source\PSoC5/cyfitter_cfg.c **** 	/* Configure IMO based on settings from Clock DWR */
 229:Generated_Source\PSoC5/cyfitter_cfg.c **** 	CY_SET_XTND_REG8((void CYFAR *)(CYREG_FASTCLK_IMO_CR), 0x03u);
 230:Generated_Source\PSoC5/cyfitter_cfg.c **** 	CY_SET_XTND_REG8((void CYFAR *)(CYREG_IMO_TR1), (CY_GET_XTND_REG8((void CYFAR *)CYREG_FLSHID_CUST_
 231:Generated_Source\PSoC5/cyfitter_cfg.c **** 
 232:Generated_Source\PSoC5/cyfitter_cfg.c **** 	/* Configure PLL based on settings from Clock DWR */
 233:Generated_Source\PSoC5/cyfitter_cfg.c **** 	CY_SET_XTND_REG16((void CYFAR *)(CYREG_FASTCLK_PLL_P), 0x0008u);
 234:Generated_Source\PSoC5/cyfitter_cfg.c **** 	CY_SET_XTND_REG16((void CYFAR *)(CYREG_FASTCLK_PLL_CFG0), 0x1251u);
 235:Generated_Source\PSoC5/cyfitter_cfg.c **** 	/* Wait up to 250us for the PLL to lock */
 236:Generated_Source\PSoC5/cyfitter_cfg.c **** 	pllLock = 0u;
 237:Generated_Source\PSoC5/cyfitter_cfg.c **** 	for (timeout = 250u / 10u; (timeout > 0u) && (pllLock != 0x03u); timeout--)
 238:Generated_Source\PSoC5/cyfitter_cfg.c **** 	{ 
 239:Generated_Source\PSoC5/cyfitter_cfg.c **** 		pllLock = 0x03u & ((uint8)((uint8)pllLock << 1) | ((CY_GET_XTND_REG8((void CYFAR *)CYREG_FASTCLK_
 240:Generated_Source\PSoC5/cyfitter_cfg.c **** 		CyDelayCycles(10u * 48u); /* Delay 10us based on 48MHz clock */
 241:Generated_Source\PSoC5/cyfitter_cfg.c **** 	}
 242:Generated_Source\PSoC5/cyfitter_cfg.c **** 	/* If we ran out of time the PLL didn't lock so go to the error function */
 243:Generated_Source\PSoC5/cyfitter_cfg.c **** 	if (timeout == 0u)
 244:Generated_Source\PSoC5/cyfitter_cfg.c **** 	{
 245:Generated_Source\PSoC5/cyfitter_cfg.c **** 		CyClockStartupError(CYCLOCKSTART_PLL_ERROR);
 246:Generated_Source\PSoC5/cyfitter_cfg.c **** 	}
 247:Generated_Source\PSoC5/cyfitter_cfg.c **** 
 248:Generated_Source\PSoC5/cyfitter_cfg.c **** 	/* Configure Bus/Master Clock based on settings from Clock DWR */
 249:Generated_Source\PSoC5/cyfitter_cfg.c **** 	CY_SET_XTND_REG16((void CYFAR *)(CYREG_CLKDIST_MSTR0), 0x0100u);
 250:Generated_Source\PSoC5/cyfitter_cfg.c **** 	CY_SET_XTND_REG8((void CYFAR *)(CYREG_CLKDIST_MSTR0), 0x07u);
 251:Generated_Source\PSoC5/cyfitter_cfg.c **** 	CY_SET_XTND_REG8((void CYFAR *)(CYREG_CLKDIST_BCFG0), 0x00u);
 252:Generated_Source\PSoC5/cyfitter_cfg.c **** 	CY_SET_XTND_REG8((void CYFAR *)(CYREG_CLKDIST_BCFG2), 0x48u);
 253:Generated_Source\PSoC5/cyfitter_cfg.c **** 	CY_SET_XTND_REG8((void CYFAR *)(CYREG_CLKDIST_MSTR0), 0x00u);
 254:Generated_Source\PSoC5/cyfitter_cfg.c **** 	CY_SET_XTND_REG8((void CYFAR *)(CYREG_CLKDIST_LD), 0x02u);
 255:Generated_Source\PSoC5/cyfitter_cfg.c **** }
 256:Generated_Source\PSoC5/cyfitter_cfg.c **** 
 257:Generated_Source\PSoC5/cyfitter_cfg.c **** 
 258:Generated_Source\PSoC5/cyfitter_cfg.c **** /* Analog API Functions */
ARM GAS  C:\Users\elon1\AppData\Local\Temp\ccNBgCce.s 			page 6


 259:Generated_Source\PSoC5/cyfitter_cfg.c **** 
 260:Generated_Source\PSoC5/cyfitter_cfg.c **** 
 261:Generated_Source\PSoC5/cyfitter_cfg.c **** /*******************************************************************************
 262:Generated_Source\PSoC5/cyfitter_cfg.c **** * Function Name: AnalogSetDefault
 263:Generated_Source\PSoC5/cyfitter_cfg.c **** ********************************************************************************
 264:Generated_Source\PSoC5/cyfitter_cfg.c **** *
 265:Generated_Source\PSoC5/cyfitter_cfg.c **** * Summary:
 266:Generated_Source\PSoC5/cyfitter_cfg.c **** *  Sets up the analog portions of the chip to default values based on chip
 267:Generated_Source\PSoC5/cyfitter_cfg.c **** *  configuration options from the project.
 268:Generated_Source\PSoC5/cyfitter_cfg.c **** *
 269:Generated_Source\PSoC5/cyfitter_cfg.c **** * Parameters:
 270:Generated_Source\PSoC5/cyfitter_cfg.c **** *  void
 271:Generated_Source\PSoC5/cyfitter_cfg.c **** *
 272:Generated_Source\PSoC5/cyfitter_cfg.c **** * Return:
 273:Generated_Source\PSoC5/cyfitter_cfg.c **** *  void
 274:Generated_Source\PSoC5/cyfitter_cfg.c **** *
 275:Generated_Source\PSoC5/cyfitter_cfg.c **** *******************************************************************************/
 276:Generated_Source\PSoC5/cyfitter_cfg.c **** static void AnalogSetDefault(void);
 277:Generated_Source\PSoC5/cyfitter_cfg.c **** static void AnalogSetDefault(void)
 278:Generated_Source\PSoC5/cyfitter_cfg.c **** {
 279:Generated_Source\PSoC5/cyfitter_cfg.c **** 	uint8 bg_xover_inl_trim = CY_GET_XTND_REG8((void CYFAR *)(CYREG_FLSHID_MFG_CFG_BG_XOVER_INL_TRIM +
 280:Generated_Source\PSoC5/cyfitter_cfg.c **** 	CY_SET_XTND_REG8((void CYFAR *)(CYREG_BG_DFT0), (bg_xover_inl_trim & 0x07u));
 281:Generated_Source\PSoC5/cyfitter_cfg.c **** 	CY_SET_XTND_REG8((void CYFAR *)(CYREG_BG_DFT1), ((bg_xover_inl_trim >> 4) & 0x0Fu));
 282:Generated_Source\PSoC5/cyfitter_cfg.c **** 	CY_SET_XTND_REG8((void CYFAR *)CYREG_PUMP_CR0, 0x44u);
 283:Generated_Source\PSoC5/cyfitter_cfg.c **** }
 284:Generated_Source\PSoC5/cyfitter_cfg.c **** 
 285:Generated_Source\PSoC5/cyfitter_cfg.c **** 
 286:Generated_Source\PSoC5/cyfitter_cfg.c **** /*******************************************************************************
 287:Generated_Source\PSoC5/cyfitter_cfg.c **** * Function Name: SetAnalogRoutingPumps
 288:Generated_Source\PSoC5/cyfitter_cfg.c **** ********************************************************************************
 289:Generated_Source\PSoC5/cyfitter_cfg.c **** *
 290:Generated_Source\PSoC5/cyfitter_cfg.c **** * Summary:
 291:Generated_Source\PSoC5/cyfitter_cfg.c **** * Enables or disables the analog pumps feeding analog routing switches.
 292:Generated_Source\PSoC5/cyfitter_cfg.c **** * Intended to be called at startup, based on the Vdda system configuration;
 293:Generated_Source\PSoC5/cyfitter_cfg.c **** * may be called during operation when the user informs us that the Vdda voltage
 294:Generated_Source\PSoC5/cyfitter_cfg.c **** * crossed the pump threshold.
 295:Generated_Source\PSoC5/cyfitter_cfg.c **** *
 296:Generated_Source\PSoC5/cyfitter_cfg.c **** * Parameters:
 297:Generated_Source\PSoC5/cyfitter_cfg.c **** *  enabled - 1 to enable the pumps, 0 to disable the pumps
 298:Generated_Source\PSoC5/cyfitter_cfg.c **** *
 299:Generated_Source\PSoC5/cyfitter_cfg.c **** * Return:
 300:Generated_Source\PSoC5/cyfitter_cfg.c **** *  void
 301:Generated_Source\PSoC5/cyfitter_cfg.c **** *
 302:Generated_Source\PSoC5/cyfitter_cfg.c **** *******************************************************************************/
 303:Generated_Source\PSoC5/cyfitter_cfg.c **** void SetAnalogRoutingPumps(uint8 enabled)
 304:Generated_Source\PSoC5/cyfitter_cfg.c **** {
  28              		.loc 1 304 0
  29              		.cfi_startproc
  30              		@ args = 0, pretend = 0, frame = 0
  31              		@ frame_needed = 0, uses_anonymous_args = 0
  32              		@ link register save eliminated.
  33              	.LVL0:
 305:Generated_Source\PSoC5/cyfitter_cfg.c **** 	uint8 regValue = CY_GET_XTND_REG8((void CYFAR *)CYREG_PUMP_CR0);
  34              		.loc 1 305 0
  35 0000 024A     		ldr	r2, .L2
  36 0002 1378     		ldrb	r3, [r2]	@ zero_extendqisi2
  37 0004 DBB2     		uxtb	r3, r3
ARM GAS  C:\Users\elon1\AppData\Local\Temp\ccNBgCce.s 			page 7


  38              	.LVL1:
 306:Generated_Source\PSoC5/cyfitter_cfg.c **** 	if (enabled != 0u)
 307:Generated_Source\PSoC5/cyfitter_cfg.c **** 	{
 308:Generated_Source\PSoC5/cyfitter_cfg.c **** 		regValue |= 0x00u;
 309:Generated_Source\PSoC5/cyfitter_cfg.c **** 	}
 310:Generated_Source\PSoC5/cyfitter_cfg.c **** 	else
 311:Generated_Source\PSoC5/cyfitter_cfg.c **** 	{
 312:Generated_Source\PSoC5/cyfitter_cfg.c **** 		regValue &= (uint8)~0x00u;
 313:Generated_Source\PSoC5/cyfitter_cfg.c **** 	}
 314:Generated_Source\PSoC5/cyfitter_cfg.c **** 	CY_SET_XTND_REG8((void CYFAR *)CYREG_PUMP_CR0, regValue);
  39              		.loc 1 314 0
  40 0006 1370     		strb	r3, [r2]
  41 0008 7047     		bx	lr
  42              	.L3:
  43 000a 00BF     		.align	2
  44              	.L2:
  45 000c 76580040 		.word	1073764470
  46              		.cfi_endproc
  47              	.LFE7:
  48              		.size	SetAnalogRoutingPumps, .-SetAnalogRoutingPumps
  49              		.section	.text.cyfitter_cfg,"ax",%progbits
  50              		.align	1
  51              		.global	cyfitter_cfg
  52              		.thumb
  53              		.thumb_func
  54              		.type	cyfitter_cfg, %function
  55              	cyfitter_cfg:
  56              	.LFB8:
 315:Generated_Source\PSoC5/cyfitter_cfg.c **** }
 316:Generated_Source\PSoC5/cyfitter_cfg.c **** 
 317:Generated_Source\PSoC5/cyfitter_cfg.c **** 
 318:Generated_Source\PSoC5/cyfitter_cfg.c **** 
 319:Generated_Source\PSoC5/cyfitter_cfg.c **** 
 320:Generated_Source\PSoC5/cyfitter_cfg.c **** /*******************************************************************************
 321:Generated_Source\PSoC5/cyfitter_cfg.c **** * Function Name: cyfitter_cfg
 322:Generated_Source\PSoC5/cyfitter_cfg.c **** ********************************************************************************
 323:Generated_Source\PSoC5/cyfitter_cfg.c **** * Summary:
 324:Generated_Source\PSoC5/cyfitter_cfg.c **** *  This function is called by the start-up code for the selected device. It
 325:Generated_Source\PSoC5/cyfitter_cfg.c **** *  performs all of the necessary device configuration based on the design
 326:Generated_Source\PSoC5/cyfitter_cfg.c **** *  settings.  This includes settings from the Design Wide Resources (DWR) such
 327:Generated_Source\PSoC5/cyfitter_cfg.c **** *  as Clocks and Pins as well as any component configuration that is necessary.
 328:Generated_Source\PSoC5/cyfitter_cfg.c **** *
 329:Generated_Source\PSoC5/cyfitter_cfg.c **** * Parameters:
 330:Generated_Source\PSoC5/cyfitter_cfg.c **** *   void
 331:Generated_Source\PSoC5/cyfitter_cfg.c **** *
 332:Generated_Source\PSoC5/cyfitter_cfg.c **** * Return:
 333:Generated_Source\PSoC5/cyfitter_cfg.c **** *   void
 334:Generated_Source\PSoC5/cyfitter_cfg.c **** *
 335:Generated_Source\PSoC5/cyfitter_cfg.c **** *******************************************************************************/
 336:Generated_Source\PSoC5/cyfitter_cfg.c **** 
 337:Generated_Source\PSoC5/cyfitter_cfg.c **** void cyfitter_cfg(void)
 338:Generated_Source\PSoC5/cyfitter_cfg.c **** {
  57              		.loc 1 338 0
  58              		.cfi_startproc
  59              		@ args = 0, pretend = 0, frame = 0
  60              		@ frame_needed = 0, uses_anonymous_args = 0
  61 0000 70B5     		push	{r4, r5, r6, lr}
ARM GAS  C:\Users\elon1\AppData\Local\Temp\ccNBgCce.s 			page 8


  62              		.cfi_def_cfa_offset 16
  63              		.cfi_offset 4, -16
  64              		.cfi_offset 5, -12
  65              		.cfi_offset 6, -8
  66              		.cfi_offset 14, -4
 339:Generated_Source\PSoC5/cyfitter_cfg.c **** #ifdef CYGlobalIntDisable
 340:Generated_Source\PSoC5/cyfitter_cfg.c **** 	/* Disable interrupts by default. Let user enable if/when they want. */
 341:Generated_Source\PSoC5/cyfitter_cfg.c **** 	CYGlobalIntDisable
  67              		.loc 1 341 0
  68              		.syntax unified
  69              	@ 341 "Generated_Source\PSoC5\cyfitter_cfg.c" 1
  70 0002 72B6     		CPSID   i
  71              	@ 0 "" 2
 342:Generated_Source\PSoC5/cyfitter_cfg.c **** #endif
 343:Generated_Source\PSoC5/cyfitter_cfg.c **** 
 344:Generated_Source\PSoC5/cyfitter_cfg.c **** 	/* Enable/Disable Debug functionality based on settings from System DWR */
 345:Generated_Source\PSoC5/cyfitter_cfg.c **** 	CY_SET_XTND_REG8((void CYFAR *)CYREG_MLOGIC_DEBUG, (CY_GET_XTND_REG8((void CYFAR *)CYREG_MLOGIC_DE
  72              		.loc 1 345 0
  73              		.thumb
  74              		.syntax unified
  75 0004 4A4A     		ldr	r2, .L21
  76              	.LBB30:
  77              	.LBB31:
 346:Generated_Source\PSoC5/cyfitter_cfg.c **** 
 347:Generated_Source\PSoC5/cyfitter_cfg.c **** 	{
 348:Generated_Source\PSoC5/cyfitter_cfg.c **** 
 349:Generated_Source\PSoC5/cyfitter_cfg.c **** 		CYPACKED typedef struct {
 350:Generated_Source\PSoC5/cyfitter_cfg.c **** 			void CYFAR *address;
 351:Generated_Source\PSoC5/cyfitter_cfg.c **** 			uint16 size;
 352:Generated_Source\PSoC5/cyfitter_cfg.c **** 		} CYPACKED_ATTR cfg_memset_t;
 353:Generated_Source\PSoC5/cyfitter_cfg.c **** 
 354:Generated_Source\PSoC5/cyfitter_cfg.c **** 		static const cfg_memset_t CYCODE cfg_memset_list[] = {
 355:Generated_Source\PSoC5/cyfitter_cfg.c **** 			/* address, size */
 356:Generated_Source\PSoC5/cyfitter_cfg.c **** 			{(void CYFAR *)(CYREG_PRT0_DR), 16u},
 357:Generated_Source\PSoC5/cyfitter_cfg.c **** 			{(void CYFAR *)(CYREG_PRT3_DR), 64u},
 358:Generated_Source\PSoC5/cyfitter_cfg.c **** 			{(void CYFAR *)(CYREG_PRT12_DR), 16u},
 359:Generated_Source\PSoC5/cyfitter_cfg.c **** 			{(void CYFAR *)(CYREG_PRT15_DR), 16u},
 360:Generated_Source\PSoC5/cyfitter_cfg.c **** 			{(void CYFAR *)(CYDEV_UCFG_B0_P0_U0_BASE), 4096u},
 361:Generated_Source\PSoC5/cyfitter_cfg.c **** 			{(void CYFAR *)(CYDEV_UCFG_B1_P2_U0_BASE), 2048u},
 362:Generated_Source\PSoC5/cyfitter_cfg.c **** 			{(void CYFAR *)(CYDEV_UCFG_DSI0_BASE), 2560u},
 363:Generated_Source\PSoC5/cyfitter_cfg.c **** 			{(void CYFAR *)(CYDEV_UCFG_DSI12_BASE), 512u},
 364:Generated_Source\PSoC5/cyfitter_cfg.c **** 			{(void CYFAR *)(CYREG_BCTL0_MDCLK_EN), 32u},
 365:Generated_Source\PSoC5/cyfitter_cfg.c **** 		};
 366:Generated_Source\PSoC5/cyfitter_cfg.c **** 
 367:Generated_Source\PSoC5/cyfitter_cfg.c **** 		uint8 CYDATA i;
 368:Generated_Source\PSoC5/cyfitter_cfg.c **** 
 369:Generated_Source\PSoC5/cyfitter_cfg.c **** 		/* Zero out critical memory blocks before beginning configuration */
 370:Generated_Source\PSoC5/cyfitter_cfg.c **** 		for (i = 0u; i < (sizeof(cfg_memset_list)/sizeof(cfg_memset_list[0])); i++)
 371:Generated_Source\PSoC5/cyfitter_cfg.c **** 		{
 372:Generated_Source\PSoC5/cyfitter_cfg.c **** 			const cfg_memset_t CYCODE * CYDATA ms = &cfg_memset_list[i];
 373:Generated_Source\PSoC5/cyfitter_cfg.c **** 			CYMEMZERO(ms->address, (size_t)(uint32)(ms->size));
  78              		.loc 1 373 0
  79 0006 4B4D     		ldr	r5, .L21+4
  80              	.LBE31:
  81              	.LBE30:
 345:Generated_Source\PSoC5/cyfitter_cfg.c **** 
  82              		.loc 1 345 0
ARM GAS  C:\Users\elon1\AppData\Local\Temp\ccNBgCce.s 			page 9


  83 0008 1378     		ldrb	r3, [r2]	@ zero_extendqisi2
  84 000a 0024     		movs	r4, #0
  85 000c 43F00403 		orr	r3, r3, #4
  86 0010 1370     		strb	r3, [r2]
  87              	.LVL2:
  88              	.LBB38:
  89              	.LBB34:
  90              		.loc 1 373 0
  91 0012 0626     		movs	r6, #6
  92              	.LVL3:
  93              	.L5:
  94              		.loc 1 373 0 is_stmt 0 discriminator 3
  95 0014 06FB0453 		mla	r3, r6, r4, r5
  96              	.LBB32:
  97              	.LBB33:
  79:Generated_Source\PSoC5/cyfitter_cfg.c **** }
  98              		.loc 1 79 0 is_stmt 1 discriminator 3
  99 0018 0021     		movs	r1, #0
 100 001a 9A88     		ldrh	r2, [r3, #4]	@ unaligned
 101 001c 1868     		ldr	r0, [r3]	@ unaligned
 102 001e 0134     		adds	r4, r4, #1
 103              	.LVL4:
 104 0020 FFF7FEFF 		bl	memset
 105              	.LVL5:
 106              	.LBE33:
 107              	.LBE32:
 108              	.LBE34:
 370:Generated_Source\PSoC5/cyfitter_cfg.c **** 		{
 109              		.loc 1 370 0 discriminator 3
 110 0024 092C     		cmp	r4, #9
 111 0026 F5D1     		bne	.L5
 112              	.LVL6:
 113              	.LBB35:
 114              	.LBB36:
 115              	.LBB37:
 189:Generated_Source\PSoC5/cyfitter_cfg.c **** 		uint8 count = (uint8)baseAddr;
 116              		.loc 1 189 0
 117 0028 4FF09043 		mov	r3, #1207959552
 118 002c 1B68     		ldr	r3, [r3]
 119              	.LVL7:
 191:Generated_Source\PSoC5/cyfitter_cfg.c **** 		while (count != 0u)
 120              		.loc 1 191 0
 121 002e 424A     		ldr	r2, .L21+8
 122 0030 23F0FF01 		bic	r1, r3, #255
 123              	.LVL8:
 124 0034 DBB2     		uxtb	r3, r3
 125 0036 03F11053 		add	r3, r3, #603979776
 126              	.LVL9:
 127 003a 0333     		adds	r3, r3, #3
 128              	.LVL10:
 129 003c 5B00     		lsls	r3, r3, #1
 130              	.LVL11:
 131              	.L11:
 132 003e 0232     		adds	r2, r2, #2
 192:Generated_Source\PSoC5/cyfitter_cfg.c **** 		{
 133              		.loc 1 192 0
 134 0040 9A42     		cmp	r2, r3
ARM GAS  C:\Users\elon1\AppData\Local\Temp\ccNBgCce.s 			page 10


 135 0042 05D0     		beq	.L20
 194:Generated_Source\PSoC5/cyfitter_cfg.c **** 			j++;
 136              		.loc 1 194 0
 137 0044 12F8020C 		ldrb	r0, [r2, #-2]	@ zero_extendqisi2
 138 0048 12F8014C 		ldrb	r4, [r2, #-1]	@ zero_extendqisi2
 139 004c 4454     		strb	r4, [r0, r1]
 140 004e F6E7     		b	.L11
 141              	.L20:
 142              	.LVL12:
 143              	.LBE37:
 144              	.LBE36:
 145              	.LBE35:
 374:Generated_Source\PSoC5/cyfitter_cfg.c **** 		}
 375:Generated_Source\PSoC5/cyfitter_cfg.c **** 
 376:Generated_Source\PSoC5/cyfitter_cfg.c **** 		cfg_write_bytes32(cy_cfg_addr_table, cy_cfg_data_table);
 377:Generated_Source\PSoC5/cyfitter_cfg.c **** 
 378:Generated_Source\PSoC5/cyfitter_cfg.c **** 		/* Enable digital routing */
 379:Generated_Source\PSoC5/cyfitter_cfg.c **** 		CY_SET_XTND_REG8((void CYFAR *)CYREG_BCTL0_BANK_CTL, CY_GET_XTND_REG8((void CYFAR *)CYREG_BCTL0_B
 146              		.loc 1 379 0
 147 0050 3A4A     		ldr	r2, .L21+12
 148              	.LBE38:
 149              	.LBB39:
 150              	.LBB40:
  86:Generated_Source\PSoC5/cyfitter_cfg.c **** }
 151              		.loc 1 86 0
 152 0052 3B4C     		ldr	r4, .L21+16
 153              	.LBE40:
 154              	.LBE39:
 155              	.LBB42:
 156              		.loc 1 379 0
 157 0054 1378     		ldrb	r3, [r2]	@ zero_extendqisi2
 158              	.LBE42:
 159              	.LBB43:
 160              	.LBB44:
 239:Generated_Source\PSoC5/cyfitter_cfg.c **** 		CyDelayCycles(10u * 48u); /* Delay 10us based on 48MHz clock */
 161              		.loc 1 239 0
 162 0056 3B4E     		ldr	r6, .L21+20
 163              	.LBE44:
 164              	.LBE43:
 165              	.LBB49:
 166              		.loc 1 379 0
 167 0058 43F00203 		orr	r3, r3, #2
 168 005c 1370     		strb	r3, [r2]
 380:Generated_Source\PSoC5/cyfitter_cfg.c **** 		CY_SET_XTND_REG8((void CYFAR *)CYREG_BCTL1_BANK_CTL, CY_GET_XTND_REG8((void CYFAR *)CYREG_BCTL1_B
 169              		.loc 1 380 0
 170 005e 137C     		ldrb	r3, [r2, #16]	@ zero_extendqisi2
 171              	.LBE49:
 172              	.LBB50:
 173              	.LBB45:
 234:Generated_Source\PSoC5/cyfitter_cfg.c **** 	/* Wait up to 250us for the PLL to lock */
 174              		.loc 1 234 0
 175 0060 1925     		movs	r5, #25
 176              	.LBE45:
 177              	.LBE50:
 178              	.LBB51:
 179              		.loc 1 380 0
 180 0062 43F00203 		orr	r3, r3, #2
ARM GAS  C:\Users\elon1\AppData\Local\Temp\ccNBgCce.s 			page 11


 181 0066 1374     		strb	r3, [r2, #16]
 182              	.LVL13:
 183              	.LBE51:
 184              	.LBB52:
 185              	.LBB53:
  86:Generated_Source\PSoC5/cyfitter_cfg.c **** }
 186              		.loc 1 86 0
 187 0068 A2F57E42 		sub	r2, r2, #65024
 188 006c 364B     		ldr	r3, .L21+24
 189 006e F13A     		subs	r2, r2, #241
 190 0070 03CB     		ldmia	r3!, {r0, r1}
 191 0072 1060     		str	r0, [r2]	@ unaligned
 192 0074 5160     		str	r1, [r2, #4]	@ unaligned
 193              	.LVL14:
 194              	.LBE53:
 195              	.LBE52:
 196              	.LBB54:
 197              	.LBB41:
 198 0076 93E80700 		ldmia	r3, {r0, r1, r2}
 199 007a 03C4     		stmia	r4!, {r0, r1}
 200 007c 2280     		strh	r2, [r4]	@ movhi
 201              	.LVL15:
 202              	.LBE41:
 203              	.LBE54:
 381:Generated_Source\PSoC5/cyfitter_cfg.c **** 	}
 382:Generated_Source\PSoC5/cyfitter_cfg.c **** 
 383:Generated_Source\PSoC5/cyfitter_cfg.c **** 
 384:Generated_Source\PSoC5/cyfitter_cfg.c **** 	/* Perform second pass device configuration. These items must be configured in specific order afte
 385:Generated_Source\PSoC5/cyfitter_cfg.c **** 	CYCONFIGCPY((void CYFAR *)(CYREG_PRT1_DM0), (const void CYFAR *)(BS_IOPINS0_1_VAL), 8u);
 386:Generated_Source\PSoC5/cyfitter_cfg.c **** 	CYCONFIGCPY((void CYFAR *)(CYREG_PRT2_DR), (const void CYFAR *)(BS_IOPINS0_2_VAL), 10u);
 387:Generated_Source\PSoC5/cyfitter_cfg.c **** 	/* Switch Boost to the precision bandgap reference from its internal reference */
 388:Generated_Source\PSoC5/cyfitter_cfg.c **** 	CY_SET_REG8((void CYXDATA *)CYREG_BOOST_CR2, (CY_GET_REG8((void CYXDATA *)CYREG_BOOST_CR2) | 0x08u
 204              		.loc 1 388 0
 205 007e 334A     		ldr	r2, .L21+28
 206              	.LBB55:
 207              	.LBB46:
 229:Generated_Source\PSoC5/cyfitter_cfg.c **** 	CY_SET_XTND_REG8((void CYFAR *)(CYREG_IMO_TR1), (CY_GET_XTND_REG8((void CYFAR *)CYREG_FLSHID_CUST_
 208              		.loc 1 229 0
 209 0080 0321     		movs	r1, #3
 210              	.LBE46:
 211              	.LBE55:
 212              		.loc 1 388 0
 213 0082 1378     		ldrb	r3, [r2]	@ zero_extendqisi2
 214              	.LBB56:
 215              	.LBB47:
 236:Generated_Source\PSoC5/cyfitter_cfg.c **** 	for (timeout = 250u / 10u; (timeout > 0u) && (pllLock != 0x03u); timeout--)
 216              		.loc 1 236 0
 217 0084 0024     		movs	r4, #0
 218              	.LBE47:
 219              	.LBE56:
 220              		.loc 1 388 0
 221 0086 43F00803 		orr	r3, r3, #8
 222 008a 1370     		strb	r3, [r2]
 389:Generated_Source\PSoC5/cyfitter_cfg.c **** 
 390:Generated_Source\PSoC5/cyfitter_cfg.c **** 	/* Set Flash Cycles based on max possible frequency in case a glitch occurs during ClockSetup(). *
 391:Generated_Source\PSoC5/cyfitter_cfg.c **** 	CY_SET_XTND_REG8((void CYFAR *)(CYREG_CACHE_CC_CTL), (((CYDEV_INSTRUCT_CACHE_ENABLED) != 0) ? 0x61
 223              		.loc 1 391 0
ARM GAS  C:\Users\elon1\AppData\Local\Temp\ccNBgCce.s 			page 12


 224 008c 304B     		ldr	r3, .L21+32
 225 008e 6122     		movs	r2, #97
 226 0090 1A70     		strb	r2, [r3]
 227              	.LBB57:
 228              	.LBB48:
 225:Generated_Source\PSoC5/cyfitter_cfg.c **** 	CY_SET_XTND_REG8((void CYFAR *)(CYREG_CLKDIST_CR), 0x08u);
 229              		.loc 1 225 0
 230 0092 0222     		movs	r2, #2
 231 0094 A3F5A063 		sub	r3, r3, #1280
 232 0098 1A70     		strb	r2, [r3]
 226:Generated_Source\PSoC5/cyfitter_cfg.c **** 
 233              		.loc 1 226 0
 234 009a 0822     		movs	r2, #8
 235 009c 4FF04023 		mov	r3, #1073758208
 236 00a0 1A70     		strb	r2, [r3]
 229:Generated_Source\PSoC5/cyfitter_cfg.c **** 	CY_SET_XTND_REG8((void CYFAR *)(CYREG_IMO_TR1), (CY_GET_XTND_REG8((void CYFAR *)CYREG_FLSHID_CUST_
 237              		.loc 1 229 0
 238 00a2 83F80012 		strb	r1, [r3, #512]
 230:Generated_Source\PSoC5/cyfitter_cfg.c **** 
 239              		.loc 1 230 0
 240 00a6 2B4B     		ldr	r3, .L21+36
 241 00a8 2B49     		ldr	r1, .L21+40
 242 00aa 1B78     		ldrb	r3, [r3]	@ zero_extendqisi2
 243 00ac DBB2     		uxtb	r3, r3
 244 00ae 0B70     		strb	r3, [r1]
 233:Generated_Source\PSoC5/cyfitter_cfg.c **** 	CY_SET_XTND_REG16((void CYFAR *)(CYREG_FASTCLK_PLL_CFG0), 0x1251u);
 245              		.loc 1 233 0
 246 00b0 2A4B     		ldr	r3, .L21+44
 247 00b2 1A80     		strh	r2, [r3]	@ movhi
 234:Generated_Source\PSoC5/cyfitter_cfg.c **** 	/* Wait up to 250us for the PLL to lock */
 248              		.loc 1 234 0
 249 00b4 41F25122 		movw	r2, #4689
 250 00b8 23F8022C 		strh	r2, [r3, #-2]	@ movhi
 251              	.LVL16:
 252              	.L9:
 239:Generated_Source\PSoC5/cyfitter_cfg.c **** 		CyDelayCycles(10u * 48u); /* Delay 10us based on 48MHz clock */
 253              		.loc 1 239 0
 254 00bc 3378     		ldrb	r3, [r6]	@ zero_extendqisi2
 240:Generated_Source\PSoC5/cyfitter_cfg.c **** 	}
 255              		.loc 1 240 0
 256 00be 4FF4F070 		mov	r0, #480
 239:Generated_Source\PSoC5/cyfitter_cfg.c **** 		CyDelayCycles(10u * 48u); /* Delay 10us based on 48MHz clock */
 257              		.loc 1 239 0
 258 00c2 03F00103 		and	r3, r3, #1
 259 00c6 43EA4404 		orr	r4, r3, r4, lsl #1
 260              	.LVL17:
 240:Generated_Source\PSoC5/cyfitter_cfg.c **** 	}
 261              		.loc 1 240 0
 262 00ca FFF7FEFF 		bl	CyDelayCycles
 263              	.LVL18:
 237:Generated_Source\PSoC5/cyfitter_cfg.c **** 	{ 
 264              		.loc 1 237 0
 265 00ce 013D     		subs	r5, r5, #1
 266              	.LVL19:
 239:Generated_Source\PSoC5/cyfitter_cfg.c **** 		CyDelayCycles(10u * 48u); /* Delay 10us based on 48MHz clock */
 267              		.loc 1 239 0
 268 00d0 04F00304 		and	r4, r4, #3
ARM GAS  C:\Users\elon1\AppData\Local\Temp\ccNBgCce.s 			page 13


 269              	.LVL20:
 237:Generated_Source\PSoC5/cyfitter_cfg.c **** 	{ 
 270              		.loc 1 237 0
 271 00d4 2BD0     		beq	.L8
 272              	.LVL21:
 273 00d6 032C     		cmp	r4, #3
 274 00d8 F0D1     		bne	.L9
 249:Generated_Source\PSoC5/cyfitter_cfg.c **** 	CY_SET_XTND_REG8((void CYFAR *)(CYREG_CLKDIST_MSTR0), 0x07u);
 275              		.loc 1 249 0
 276 00da 214B     		ldr	r3, .L21+48
 277 00dc 4FF48072 		mov	r2, #256
 278 00e0 1A80     		strh	r2, [r3]	@ movhi
 251:Generated_Source\PSoC5/cyfitter_cfg.c **** 	CY_SET_XTND_REG8((void CYFAR *)(CYREG_CLKDIST_BCFG2), 0x48u);
 279              		.loc 1 251 0
 280 00e2 2049     		ldr	r1, .L21+52
 250:Generated_Source\PSoC5/cyfitter_cfg.c **** 	CY_SET_XTND_REG8((void CYFAR *)(CYREG_CLKDIST_BCFG0), 0x00u);
 281              		.loc 1 250 0
 282 00e4 0722     		movs	r2, #7
 283 00e6 1A70     		strb	r2, [r3]
 252:Generated_Source\PSoC5/cyfitter_cfg.c **** 	CY_SET_XTND_REG8((void CYFAR *)(CYREG_CLKDIST_MSTR0), 0x00u);
 284              		.loc 1 252 0
 285 00e8 4820     		movs	r0, #72
 251:Generated_Source\PSoC5/cyfitter_cfg.c **** 	CY_SET_XTND_REG8((void CYFAR *)(CYREG_CLKDIST_BCFG2), 0x48u);
 286              		.loc 1 251 0
 287 00ea 0022     		movs	r2, #0
 288 00ec 0A70     		strb	r2, [r1]
 252:Generated_Source\PSoC5/cyfitter_cfg.c **** 	CY_SET_XTND_REG8((void CYFAR *)(CYREG_CLKDIST_MSTR0), 0x00u);
 289              		.loc 1 252 0
 290 00ee 8870     		strb	r0, [r1, #2]
 253:Generated_Source\PSoC5/cyfitter_cfg.c **** 	CY_SET_XTND_REG8((void CYFAR *)(CYREG_CLKDIST_LD), 0x02u);
 291              		.loc 1 253 0
 292 00f0 1A70     		strb	r2, [r3]
 254:Generated_Source\PSoC5/cyfitter_cfg.c **** }
 293              		.loc 1 254 0
 294 00f2 0222     		movs	r2, #2
 295 00f4 03F8032C 		strb	r2, [r3, #-3]
 296              	.LVL22:
 297              	.LBE48:
 298              	.LBE57:
 392:Generated_Source\PSoC5/cyfitter_cfg.c **** 	/* Setup clocks based on selections from Clock DWR */
 393:Generated_Source\PSoC5/cyfitter_cfg.c **** 	ClockSetup();
 394:Generated_Source\PSoC5/cyfitter_cfg.c **** 	/* Set Flash Cycles based on newly configured 24.00MHz Bus Clock. */
 395:Generated_Source\PSoC5/cyfitter_cfg.c **** 	CY_SET_XTND_REG8((void CYFAR *)(CYREG_CACHE_CC_CTL), (((CYDEV_INSTRUCT_CACHE_ENABLED) != 0) ? 0x81
 299              		.loc 1 395 0
 300 00f8 8122     		movs	r2, #129
 301 00fa 83F8FC27 		strb	r2, [r3, #2044]
 396:Generated_Source\PSoC5/cyfitter_cfg.c **** 	CY_SET_XTND_REG8((void CYFAR *)(CYREG_PANTHER_WAITPIPE), 0x01u);
 302              		.loc 1 396 0
 303 00fe 0122     		movs	r2, #1
 304 0100 03F5F823 		add	r3, r3, #507904
 305 0104 1A70     		strb	r2, [r3]
 306              	.LBB58:
 307              	.LBB59:
 279:Generated_Source\PSoC5/cyfitter_cfg.c **** 	CY_SET_XTND_REG8((void CYFAR *)(CYREG_BG_DFT0), (bg_xover_inl_trim & 0x07u));
 308              		.loc 1 279 0
 309 0106 184B     		ldr	r3, .L21+56
 280:Generated_Source\PSoC5/cyfitter_cfg.c **** 	CY_SET_XTND_REG8((void CYFAR *)(CYREG_BG_DFT1), ((bg_xover_inl_trim >> 4) & 0x0Fu));
ARM GAS  C:\Users\elon1\AppData\Local\Temp\ccNBgCce.s 			page 14


 310              		.loc 1 280 0
 311 0108 184A     		ldr	r2, .L21+60
 279:Generated_Source\PSoC5/cyfitter_cfg.c **** 	CY_SET_XTND_REG8((void CYFAR *)(CYREG_BG_DFT0), (bg_xover_inl_trim & 0x07u));
 312              		.loc 1 279 0
 313 010a 1B78     		ldrb	r3, [r3]	@ zero_extendqisi2
 314              	.LBE59:
 315              	.LBE58:
 316              	.LBB61:
 317              	.LBB62:
  86:Generated_Source\PSoC5/cyfitter_cfg.c **** }
 318              		.loc 1 86 0
 319 010c 184C     		ldr	r4, .L21+64
 320              	.LBE62:
 321              	.LBE61:
 322              	.LBB64:
 323              	.LBB60:
 279:Generated_Source\PSoC5/cyfitter_cfg.c **** 	CY_SET_XTND_REG8((void CYFAR *)(CYREG_BG_DFT0), (bg_xover_inl_trim & 0x07u));
 324              		.loc 1 279 0
 325 010e DBB2     		uxtb	r3, r3
 326              	.LVL23:
 280:Generated_Source\PSoC5/cyfitter_cfg.c **** 	CY_SET_XTND_REG8((void CYFAR *)(CYREG_BG_DFT1), ((bg_xover_inl_trim >> 4) & 0x0Fu));
 327              		.loc 1 280 0
 328 0110 03F00701 		and	r1, r3, #7
 281:Generated_Source\PSoC5/cyfitter_cfg.c **** 	CY_SET_XTND_REG8((void CYFAR *)CYREG_PUMP_CR0, 0x44u);
 329              		.loc 1 281 0
 330 0114 1B09     		lsrs	r3, r3, #4
 331              	.LVL24:
 280:Generated_Source\PSoC5/cyfitter_cfg.c **** 	CY_SET_XTND_REG8((void CYFAR *)(CYREG_BG_DFT1), ((bg_xover_inl_trim >> 4) & 0x0Fu));
 332              		.loc 1 280 0
 333 0116 1170     		strb	r1, [r2]
 281:Generated_Source\PSoC5/cyfitter_cfg.c **** 	CY_SET_XTND_REG8((void CYFAR *)CYREG_PUMP_CR0, 0x44u);
 334              		.loc 1 281 0
 335 0118 5370     		strb	r3, [r2, #1]
 282:Generated_Source\PSoC5/cyfitter_cfg.c **** }
 336              		.loc 1 282 0
 337 011a 164B     		ldr	r3, .L21+68
 338 011c 4422     		movs	r2, #68
 339 011e 1A70     		strb	r2, [r3]
 340              	.LVL25:
 341              	.LBE60:
 342              	.LBE64:
 343              	.LBB65:
 344              	.LBB63:
  86:Generated_Source\PSoC5/cyfitter_cfg.c **** }
 345              		.loc 1 86 0
 346 0120 A3F5A653 		sub	r3, r3, #5312
 347 0124 163B     		subs	r3, r3, #22
 348 0126 0FCB     		ldmia	r3, {r0, r1, r2, r3}
 349 0128 07C4     		stmia	r4!, {r0, r1, r2}
 350 012a 2380     		strh	r3, [r4]	@ movhi
 351              	.LVL26:
 352              	.LBE63:
 353              	.LBE65:
 397:Generated_Source\PSoC5/cyfitter_cfg.c **** 
 398:Generated_Source\PSoC5/cyfitter_cfg.c **** 	/* Perform basic analog initialization to defaults */
 399:Generated_Source\PSoC5/cyfitter_cfg.c **** 	AnalogSetDefault();
 400:Generated_Source\PSoC5/cyfitter_cfg.c **** 
ARM GAS  C:\Users\elon1\AppData\Local\Temp\ccNBgCce.s 			page 15


 401:Generated_Source\PSoC5/cyfitter_cfg.c **** 	/* Configure alternate active mode */
 402:Generated_Source\PSoC5/cyfitter_cfg.c **** 	CYCONFIGCPY((void CYFAR *)CYDEV_PM_STBY_BASE, (const void CYFAR *)CYDEV_PM_ACT_BASE, 14u);
 403:Generated_Source\PSoC5/cyfitter_cfg.c **** }
 354              		.loc 1 403 0
 355 012c 70BD     		pop	{r4, r5, r6, pc}
 356              	.LVL27:
 357              	.L8:
 358 012e FEE7     		b	.L8
 359              	.L22:
 360              		.align	2
 361              	.L21:
 362 0130 E8460040 		.word	1073759976
 363 0134 00000000 		.word	.LANCHOR0
 364 0138 04000048 		.word	1207959556
 365 013c 03500140 		.word	1073827843
 366 0140 20510040 		.word	1073762592
 367 0144 25420040 		.word	1073758757
 368 0148 08000048 		.word	1207959560
 369 014c 22430040 		.word	1073759010
 370 0150 00480040 		.word	1073760256
 371 0154 08010049 		.word	1224737032
 372 0158 A1460040 		.word	1073759905
 373 015c 22420040 		.word	1073758754
 374 0160 04400040 		.word	1073758212
 375 0164 06400040 		.word	1073758214
 376 0168 CF010049 		.word	1224737231
 377 016c 6E580040 		.word	1073764462
 378 0170 B0430040 		.word	1073759152
 379 0174 76580040 		.word	1073764470
 380              		.cfi_endproc
 381              	.LFE8:
 382              		.size	cyfitter_cfg, .-cyfitter_cfg
 383              		.section	.rodata
 384              		.set	.LANCHOR0,. + 0
 385              		.type	cfg_memset_list.5013, %object
 386              		.size	cfg_memset_list.5013, 54
 387              	cfg_memset_list.5013:
 388 0000 00510040 		.4byte	1073762560
 389 0004 1000     		.2byte	16
 390 0006 30510040 		.4byte	1073762608
 391 000a 4000     		.2byte	64
 392 000c C0510040 		.4byte	1073762752
 393 0010 1000     		.2byte	16
 394 0012 F0510040 		.4byte	1073762800
 395 0016 1000     		.2byte	16
 396 0018 00000140 		.4byte	1073807360
 397 001c 0010     		.2byte	4096
 398 001e 00140140 		.4byte	1073812480
 399 0022 0008     		.2byte	2048
 400 0024 00400140 		.4byte	1073823744
 401 0028 000A     		.2byte	2560
 402 002a 004C0140 		.4byte	1073826816
 403 002e 0002     		.2byte	512
 404 0030 00500140 		.4byte	1073827840
 405 0034 2000     		.2byte	32
 406              		.text
 407              	.Letext0:
ARM GAS  C:\Users\elon1\AppData\Local\Temp\ccNBgCce.s 			page 16


 408              		.file 2 "c:\\program files (x86)\\cypress\\psoc creator\\4.4\\psoc creator\\import\\gnu\\arm\\5.4.
 409              		.file 3 "Generated_Source\\PSoC5\\cytypes.h"
 410              		.file 4 "Generated_Source\\PSoC5\\CyLib.h"