ARM GAS  C:\Users\elon1\AppData\Local\Temp\cc1730qT.s 			page 1


   1              		.syntax unified
   2              		.cpu cortex-m3
   3              		.fpu softvfp
   4              		.eabi_attribute 20, 1
   5              		.eabi_attribute 21, 1
   6              		.eabi_attribute 23, 3
   7              		.eabi_attribute 24, 1
   8              		.eabi_attribute 25, 1
   9              		.eabi_attribute 26, 1
  10              		.eabi_attribute 30, 4
  11              		.eabi_attribute 34, 1
  12              		.eabi_attribute 18, 4
  13              		.thumb
  14              		.syntax unified
  15              		.file	"main.c"
  16              		.text
  17              	.Ltext0:
  18              		.cfi_sections	.debug_frame
  19              		.section	.text.sw1_handler,"ax",%progbits
  20              		.align	1
  21              		.global	sw1_handler
  22              		.thumb
  23              		.thumb_func
  24              		.type	sw1_handler, %function
  25              	sw1_handler:
  26              	.LFB63:
  27              		.file 1 "main.c"
   1:main.c        **** /* ========================================
   2:main.c        ****  *
   3:main.c        ****  * Copyright YOUR COMPANY, THE YEAR
   4:main.c        ****  * All Rights Reserved
   5:main.c        ****  * UNPUBLISHED, LICENSED SOFTWARE.
   6:main.c        ****  *
   7:main.c        ****  * CONFIDENTIAL AND PROPRIETARY INFORMATION
   8:main.c        ****  * WHICH IS THE PROPERTY OF your company.
   9:main.c        ****  *
  10:main.c        ****  * ========================================
  11:main.c        **** */
  12:main.c        **** #include "project.h"
  13:main.c        **** 
  14:main.c        **** 
  15:main.c        **** CY_ISR( sw1_handler )
  16:main.c        **** {
  28              		.loc 1 16 0
  29              		.cfi_startproc
  30              		@ args = 0, pretend = 0, frame = 0
  31              		@ frame_needed = 0, uses_anonymous_args = 0
  32 0000 08B5     		push	{r3, lr}
  33              		.cfi_def_cfa_offset 8
  34              		.cfi_offset 3, -8
  35              		.cfi_offset 14, -4
  17:main.c        ****     led_Write( ~led_Read());
  36              		.loc 1 17 0
  37 0002 FFF7FEFF 		bl	led_Read
  38              	.LVL0:
  39 0006 C043     		mvns	r0, r0
  40 0008 C0B2     		uxtb	r0, r0
ARM GAS  C:\Users\elon1\AppData\Local\Temp\cc1730qT.s 			page 2


  41 000a FFF7FEFF 		bl	led_Write
  42              	.LVL1:
  18:main.c        ****     CyDelay(200);
  43              		.loc 1 18 0
  44 000e C820     		movs	r0, #200
  45 0010 FFF7FEFF 		bl	CyDelay
  46              	.LVL2:
  19:main.c        ****     led_Write( ~led_Read());
  47              		.loc 1 19 0
  48 0014 FFF7FEFF 		bl	led_Read
  49              	.LVL3:
  50 0018 C043     		mvns	r0, r0
  51 001a C0B2     		uxtb	r0, r0
  52 001c FFF7FEFF 		bl	led_Write
  53              	.LVL4:
  20:main.c        ****     CyDelay(200);
  54              		.loc 1 20 0
  55 0020 C820     		movs	r0, #200
  56 0022 FFF7FEFF 		bl	CyDelay
  57              	.LVL5:
  21:main.c        ****     led_Write( ~led_Read());
  58              		.loc 1 21 0
  59 0026 FFF7FEFF 		bl	led_Read
  60              	.LVL6:
  61 002a C043     		mvns	r0, r0
  62 002c C0B2     		uxtb	r0, r0
  63 002e FFF7FEFF 		bl	led_Write
  64              	.LVL7:
  22:main.c        ****     CyDelay(200);
  65              		.loc 1 22 0
  66 0032 C820     		movs	r0, #200
  67 0034 FFF7FEFF 		bl	CyDelay
  68              	.LVL8:
  23:main.c        ****      led_Write( ~led_Read());
  69              		.loc 1 23 0
  70 0038 FFF7FEFF 		bl	led_Read
  71              	.LVL9:
  72 003c C043     		mvns	r0, r0
  73 003e C0B2     		uxtb	r0, r0
  74 0040 FFF7FEFF 		bl	led_Write
  75              	.LVL10:
  24:main.c        ****     CyDelay(200);
  76              		.loc 1 24 0
  77 0044 C820     		movs	r0, #200
  78 0046 FFF7FEFF 		bl	CyDelay
  79              	.LVL11:
  25:main.c        ****     led_Write( ~led_Read());
  80              		.loc 1 25 0
  81 004a FFF7FEFF 		bl	led_Read
  82              	.LVL12:
  83 004e C043     		mvns	r0, r0
  84 0050 C0B2     		uxtb	r0, r0
  85 0052 FFF7FEFF 		bl	led_Write
  86              	.LVL13:
  26:main.c        ****     CyDelay(200);
  87              		.loc 1 26 0
  88 0056 C820     		movs	r0, #200
ARM GAS  C:\Users\elon1\AppData\Local\Temp\cc1730qT.s 			page 3


  89 0058 FFF7FEFF 		bl	CyDelay
  90              	.LVL14:
  27:main.c        ****     led_Write( ~led_Read());
  91              		.loc 1 27 0
  92 005c FFF7FEFF 		bl	led_Read
  93              	.LVL15:
  94 0060 C043     		mvns	r0, r0
  95 0062 C0B2     		uxtb	r0, r0
  96 0064 FFF7FEFF 		bl	led_Write
  97              	.LVL16:
  28:main.c        ****     CyDelay(200);
  98              		.loc 1 28 0
  99 0068 C820     		movs	r0, #200
 100 006a FFF7FEFF 		bl	CyDelay
 101              	.LVL17:
  29:main.c        ****     
  30:main.c        ****     sw1_ClearInterrupt();
  31:main.c        **** }
 102              		.loc 1 31 0
 103 006e BDE80840 		pop	{r3, lr}
 104              		.cfi_restore 14
 105              		.cfi_restore 3
 106              		.cfi_def_cfa_offset 0
  30:main.c        **** }
 107              		.loc 1 30 0
 108 0072 FFF7FEBF 		b	sw1_ClearInterrupt
 109              	.LVL18:
 110              		.cfi_endproc
 111              	.LFE63:
 112              		.size	sw1_handler, .-sw1_handler
 113              		.section	.text.startup.main,"ax",%progbits
 114              		.align	1
 115              		.global	main
 116              		.thumb
 117              		.thumb_func
 118              		.type	main, %function
 119              	main:
 120              	.LFB64:
  32:main.c        **** 
  33:main.c        **** int main(void)
  34:main.c        **** {
 121              		.loc 1 34 0
 122              		.cfi_startproc
 123              		@ Volatile: function does not return.
 124              		@ args = 0, pretend = 0, frame = 0
 125              		@ frame_needed = 0, uses_anonymous_args = 0
 126 0000 08B5     		push	{r3, lr}
 127              		.cfi_def_cfa_offset 8
 128              		.cfi_offset 3, -8
 129              		.cfi_offset 14, -4
  35:main.c        ****     CyGlobalIntEnable; /* Enable global interrupts. */
 130              		.loc 1 35 0
 131              		.syntax unified
 132              	@ 35 "main.c" 1
 133 0002 62B6     		CPSIE   i
 134              	@ 0 "" 2
  36:main.c        ****     sw1_Int_StartEx(sw1_handler);
ARM GAS  C:\Users\elon1\AppData\Local\Temp\cc1730qT.s 			page 4


 135              		.loc 1 36 0
 136              		.thumb
 137              		.syntax unified
 138 0004 0148     		ldr	r0, .L5
 139 0006 FFF7FEFF 		bl	sw1_Int_StartEx
 140              	.LVL19:
 141              	.L3:
 142 000a FEE7     		b	.L3
 143              	.L6:
 144              		.align	2
 145              	.L5:
 146 000c 00000000 		.word	sw1_handler
 147              		.cfi_endproc
 148              	.LFE64:
 149              		.size	main, .-main
 150              		.text
 151              	.Letext0:
 152              		.file 2 "c:\\program files (x86)\\cypress\\psoc creator\\4.4\\psoc creator\\import\\gnu\\arm\\5.4.
 153              		.file 3 "c:\\program files (x86)\\cypress\\psoc creator\\4.4\\psoc creator\\import\\gnu\\arm\\5.4.
 154              		.file 4 "Generated_Source\\PSoC5/led.h"
 155              		.file 5 "Generated_Source\\PSoC5/CyLib.h"
 156              		.file 6 "Generated_Source\\PSoC5/sw1.h"
 157              		.file 7 "Generated_Source\\PSoC5/sw1_Int.h"
 158              		.file 8 "Generated_Source\\PSoC5/core_cm3.h"